target datalayout = "e-m:e-p270:32:32-p271:32:32-p272:64:64-i64:64-i128:128-f80:128-n8:16:32:64-S128"
target triple = "x86_64-pc-linux-gnu"

; Function Attrs: nounwind uwtable
define hidden i32 @SDL_powerof2(i32 noundef %0) #0 {
  %2 = alloca i32, align 4
  %3 = alloca i32, align 4
  %4 = alloca i32, align 4
  %5 = alloca i32, align 4
  store i32 %0, ptr %3, align 4
  call void @llvm.lifetime.start.p0(i64 4, ptr %4) #6
  %6 = load i32, ptr %3, align 4
  %7 = icmp sle i32 %6, 0
  br i1 %7, label %8, label %9

8:                                                ; preds = %1
  store i32 1, ptr %2, align 4
  store i32 1, ptr %5, align 4
  br label %36

9:                                                ; preds = %1
  %10 = load i32, ptr %3, align 4
  store i32 %10, ptr %4, align 4
  %11 = load i32, ptr %4, align 4
  %12 = sub nsw i32 %11, 1
  store i32 %12, ptr %4, align 4
  %13 = load i32, ptr %4, align 4
  %14 = ashr i32 %13, 1
  %15 = load i32, ptr %4, align 4
  %16 = or i32 %15, %14
  store i32 %16, ptr %4, align 4
  %17 = load i32, ptr %4, align 4
  %18 = ashr i32 %17, 2
  %19 = load i32, ptr %4, align 4
  %20 = or i32 %19, %18
  store i32 %20, ptr %4, align 4
  %21 = load i32, ptr %4, align 4
  %22 = ashr i32 %21, 4
  %23 = load i32, ptr %4, align 4
  %24 = or i32 %23, %22
  store i32 %24, ptr %4, align 4
  %25 = load i32, ptr %4, align 4
  %26 = ashr i32 %25, 8
  %27 = load i32, ptr %4, align 4
  %28 = or i32 %27, %26
  store i32 %28, ptr %4, align 4
  %29 = load i32, ptr %4, align 4
  %30 = ashr i32 %29, 16
  %31 = load i32, ptr %4, align 4
  %32 = or i32 %31, %30
  store i32 %32, ptr %4, align 4
  %33 = load i32, ptr %4, align 4
  %34 = add nsw i32 %33, 1
  store i32 %34, ptr %4, align 4
  %35 = load i32, ptr %4, align 4
  store i32 %35, ptr %2, align 4
  store i32 1, ptr %5, align 4
  br label %36

36:                                               ; preds = %9, %8
  call void @llvm.lifetime.end.p0(i64 4, ptr %4) #6
  %37 = load i32, ptr %2, align 4
  ret i32 %37
}