; Function Attrs: mustprogress nofree norecurse nosync nounwind willreturn memory(none) uwtable
define hidden range(i32 1, -2147483648) i32 @SDL_powerof2(i32 noundef %0) local_unnamed_addr #0 {
  %2 = icmp slt i32 %0, 1
  br i1 %2, label %16, label %3

3:                                                ; preds = %1
  %4 = add nsw i32 %0, -1
  %5 = lshr i32 %4, 1
  %6 = or i32 %5, %4
  %7 = lshr i32 %6, 2
  %8 = or i32 %7, %6
  %9 = lshr i32 %8, 4
  %10 = or i32 %9, %8
  %11 = lshr i32 %10, 8
  %12 = or i32 %11, %10
  %13 = lshr i32 %12, 16
  %14 = or i32 %13, %12
  %15 = add nuw nsw i32 %14, 1
  br label %16

16:                                               ; preds = %1, %3
  %.0 = phi i32 [ %15, %3 ], [ 1, %1 ]
  ret i32 %.0
}